Certificate:
    Data:
        Version: 3 (0x2)
        Serial Number:
            12:c6:92:93:33:1a:50:55:81:ec:b1:51:df:64:45:5f
        Signature Algorithm: sha256WithRSAEncryption
        Issuer: CN=cmc
        Validity
            Not Before: Feb 14 17:42:02 2024 GMT
            Not After : Jan 29 17:42:02 2027 GMT
        Subject: CN=cultura_salto
        Subject Public Key Info:
            Public Key Algorithm: rsaEncryption
                RSA Public-Key: (2048 bit)
                Modulus:
                    00:ac:cb:eb:36:61:75:4e:2e:d4:4a:ec:26:ee:00:
                    ea:dc:2d:4f:b1:4c:e7:50:89:13:81:b0:04:b3:3d:
                    4c:b1:7e:4c:07:aa:86:0d:3c:f9:9b:a1:60:7e:09:
                    e3:4b:f6:e7:30:6a:3c:f6:b7:c9:35:14:4e:92:e2:
                    d7:a3:62:4d:51:af:41:3d:aa:4d:2b:40:87:1c:59:
                    ab:30:29:90:e6:56:4d:3b:e9:e1:41:89:b0:c5:50:
                    17:32:e4:e4:e6:c0:20:eb:b4:62:21:21:14:6a:e3:
                    77:86:b2:2e:d4:ea:0e:12:8f:d5:2c:e9:df:3e:40:
                    ab:39:d3:b9:14:6d:69:fd:2e:ec:c4:75:e4:65:32:
                    8f:0c:3a:84:0c:62:15:83:8d:27:ca:13:f0:ab:7c:
                    2b:2a:b3:c8:3f:3b:6a:01:4a:49:09:58:5d:02:50:
                    23:c0:97:a2:b1:d8:e3:9d:c7:62:cc:ea:39:96:10:
                    57:fe:99:bb:62:6c:02:18:90:b6:17:a5:9f:89:24:
                    6d:03:83:4b:40:b7:66:fc:61:e6:a5:7f:37:3f:6f:
                    c1:f1:8c:36:cb:f3:68:2b:ca:09:3d:93:04:5c:4e:
                    2d:21:95:ca:fe:c2:9c:1f:88:93:64:d5:00:f9:9d:
                    45:1b:7e:11:7c:9e:26:7b:55:68:2a:fc:7d:e8:9d:
                    95:9d
                Exponent: 65537 (0x10001)
        X509v3 extensions:
            X509v3 Basic Constraints: 
                CA:FALSE
            X509v3 Subject Key Identifier: 
                56:94:C9:92:AE:DE:FA:7B:A4:9A:7E:24:48:1D:AC:F4:1C:AE:38:0D
            X509v3 Authority Key Identifier: 
                keyid:05:08:0F:43:48:1C:C7:FA:58:70:F6:49:FB:68:E0:BC:40:95:18:93
                DirName:/CN=cmc
                serial:3D:41:38:AE:43:C4:7A:87:39:F4:5C:96:FB:E3:EB:C9:04:65:05:61

            X509v3 Extended Key Usage: 
                TLS Web Client Authentication
            X509v3 Key Usage: 
                Digital Signature
    Signature Algorithm: sha256WithRSAEncryption
         a8:51:14:db:65:f7:df:d4:3f:66:9d:66:e8:0b:b2:6b:60:1f:
         fd:c6:cf:5a:58:48:2b:45:7b:20:c7:12:fa:34:56:aa:2a:17:
         f6:b3:6b:55:37:4f:2c:38:7a:0e:36:02:1a:98:e4:e5:7a:d1:
         37:b8:ff:78:d6:74:9d:6a:85:82:c1:7b:b9:c1:54:28:78:ca:
         62:7c:75:f0:07:06:2a:56:f6:32:3b:50:3a:84:f8:87:89:56:
         a0:77:e4:31:17:fe:6f:b8:36:28:ba:5f:43:f9:55:fd:a0:3f:
         e8:ad:26:19:ff:d6:de:40:04:83:6f:89:02:74:1b:fb:0c:a2:
         7e:79:23:a5:83:75:c6:c7:a4:11:96:18:96:a5:55:a4:02:eb:
         f9:da:84:7d:5a:39:af:24:ef:a2:03:46:9f:b4:2d:49:72:1d:
         72:1c:f6:32:44:be:6a:dd:a6:24:83:05:d0:0e:46:f6:e7:5c:
         7d:ed:83:e5:a3:84:e9:bb:da:7a:6d:47:9a:ad:9b:2c:a4:cd:
         34:f0:9a:7a:0e:0a:44:a9:76:66:4e:b2:b6:32:54:74:74:76:
         76:b9:33:26:3e:d1:e1:24:f8:69:13:d1:09:a3:26:07:12:ec:
         31:ed:bb:a4:03:08:23:10:7e:39:c4:10:1b:78:d6:df:d3:1f:
         dd:f1:8a:5d
-----BEGIN CERTIFICATE-----
MIIDSzCCAjOgAwIBAgIQEsaSkzMaUFWB7LFR32RFXzANBgkqhkiG9w0BAQsFADAO
MQwwCgYDVQQDDANjbWMwHhcNMjQwMjE0MTc0MjAyWhcNMjcwMTI5MTc0MjAyWjAY
MRYwFAYDVQQDDA1jdWx0dXJhX3NhbHRvMIIBIjANBgkqhkiG9w0BAQEFAAOCAQ8A
MIIBCgKCAQEArMvrNmF1Ti7USuwm7gDq3C1PsUznUIkTgbAEsz1MsX5MB6qGDTz5
m6FgfgnjS/bnMGo89rfJNRROkuLXo2JNUa9BPapNK0CHHFmrMCmQ5lZNO+nhQYmw
xVAXMuTk5sAg67RiISEUauN3hrIu1OoOEo/VLOnfPkCrOdO5FG1p/S7sxHXkZTKP
DDqEDGIVg40nyhPwq3wrKrPIPztqAUpJCVhdAlAjwJeisdjjncdizOo5lhBX/pm7
YmwCGJC2F6WfiSRtA4NLQLdm/GHmpX83P2/B8Yw2y/NoK8oJPZMEXE4tIZXK/sKc
H4iTZNUA+Z1FG34RfJ4me1VoKvx96J2VnQIDAQABo4GaMIGXMAkGA1UdEwQCMAAw
HQYDVR0OBBYEFFaUyZKu3vp7pJp+JEgdrPQcrjgNMEkGA1UdIwRCMECAFAUID0NI
HMf6WHD2Sfto4LxAlRiToRKkEDAOMQwwCgYDVQQDDANjbWOCFD1BOK5DxHqHOfRc
lvvj68kEZQVhMBMGA1UdJQQMMAoGCCsGAQUFBwMCMAsGA1UdDwQEAwIHgDANBgkq
hkiG9w0BAQsFAAOCAQEAqFEU22X339Q/Zp1m6Auya2Af/cbPWlhIK0V7IMcS+jRW
qioX9rNrVTdPLDh6DjYCGpjk5XrRN7j/eNZ0nWqFgsF7ucFUKHjKYnx18AcGKlb2
MjtQOoT4h4lWoHfkMRf+b7g2KLpfQ/lV/aA/6K0mGf/W3kAEg2+JAnQb+wyifnkj
pYN1xsekEZYYlqVVpALr+dqEfVo5ryTvogNGn7QtSXIdchz2MkS+at2mJIMF0A5G
9udcfe2D5aOE6bvaem1Hmq2bLKTNNPCaeg4KRKl2Zk6ytjJUdHR2drkzJj7R4ST4
aRPRCaMmBxLsMe27pAMIIxB+OcQQG3jW39Mf3fGKXQ==
-----END CERTIFICATE-----
